target datalayout = "e-m:e-p270:32:32-p271:32:32-p272:64:64-i64:64-i128:128-f80:128-n8:16:32:64-S128"
target triple = "x86_64-pc-linux-gnu"

%struct.Ivy_Man_t_ = type { ptr, ptr, ptr, ptr, ptr, %struct.Ivy_Obj_t_, [8 x i32], i32, i32, ptr, i32, i32, i32, i32, ptr, i32, ptr, ptr, ptr, i32, ptr, ptr, ptr, i64, i64 }
%struct.Ivy_Obj_t_ = type { i32, i32, i32, i32, ptr, ptr, ptr, ptr, ptr, ptr, ptr, ptr }
%struct.Dec_Graph_t_ = type { i32, i32, i32, i32, ptr, %struct.Dec_Edge_t_ }
%struct.Dec_Edge_t_ = type { i32 }
%struct.Dec_Node_t_ = type { %struct.Dec_Edge_t_, %struct.Dec_Edge_t_, %union.anon, i32 }
%union.anon = type { ptr }

; Function Attrs: inlinehint nounwind uwtable
define internal ptr @Dec_GraphNode(ptr noundef %0, i32 noundef %1) #2 {
  %3 = alloca ptr, align 8
  %4 = alloca i32, align 4
  store ptr %0, ptr %3, align 8, !tbaa !26
  store i32 %1, ptr %4, align 4, !tbaa !8
  %5 = load ptr, ptr %3, align 8, !tbaa !26
  %6 = getelementptr inbounds nuw %struct.Dec_Graph_t_, ptr %5, i32 0, i32 4
  %7 = load ptr, ptr %6, align 8, !tbaa !130
  %8 = load i32, ptr %4, align 4, !tbaa !8
  %9 = sext i32 %8 to i64
  %10 = getelementptr inbounds %struct.Dec_Node_t_, ptr %7, i64 %9
  ret ptr %10
}

; Function Attrs: inlinehint nounwind uwtable
define internal ptr @Dec_GraphVar(ptr noundef %0) #2 {
  %2 = alloca ptr, align 8
  store ptr %0, ptr %2, align 8, !tbaa !26
  %3 = load ptr, ptr %2, align 8, !tbaa !26
  %4 = load ptr, ptr %2, align 8, !tbaa !26
  %5 = getelementptr inbounds nuw %struct.Dec_Graph_t_, ptr %4, i32 0, i32 5
  %6 = load i32, ptr %5, align 8
  %7 = lshr i32 %6, 1
  %8 = and i32 %7, 1073741823
  %9 = call ptr @Dec_GraphNode(ptr noundef %3, i32 noundef %8)
  ret ptr %9
}

; Function Attrs: inlinehint nounwind uwtable
define internal i32 @Dec_GraphIsVar(ptr noundef %0) #2 {
  %2 = alloca ptr, align 8
  store ptr %0, ptr %2, align 8, !tbaa !26
  %3 = load ptr, ptr %2, align 8, !tbaa !26
  %4 = getelementptr inbounds nuw %struct.Dec_Graph_t_, ptr %3, i32 0, i32 5
  %5 = load i32, ptr %4, align 8
  %6 = lshr i32 %5, 1
  %7 = and i32 %6, 1073741823
  %8 = load ptr, ptr %2, align 8, !tbaa !26
  %9 = getelementptr inbounds nuw %struct.Dec_Graph_t_, ptr %8, i32 0, i32 1
  %10 = load i32, ptr %9, align 4, !tbaa !115
  %11 = icmp ult i32 %7, %10
  %12 = zext i1 %11 to i32
  ret i32 %12
}

; Function Attrs: inlinehint nounwind uwtable
define internal ptr @Ivy_NotCond(ptr noundef %0, i32 noundef %1) #2 {
  %3 = alloca ptr, align 8
  %4 = alloca i32, align 4
  store ptr %0, ptr %3, align 8, !tbaa !19
  store i32 %1, ptr %4, align 4, !tbaa !8
  %5 = load ptr, ptr %3, align 8, !tbaa !19
  %6 = ptrtoint ptr %5 to i64
  %7 = load i32, ptr %4, align 4, !tbaa !8
  %8 = sext i32 %7 to i64
  %9 = xor i64 %6, %8
  %10 = inttoptr i64 %9 to ptr
  ret ptr %10
}

; Function Attrs: inlinehint nounwind uwtable
define internal i32 @Dec_GraphIsComplement(ptr noundef %0) #2 {
  %2 = alloca ptr, align 8
  store ptr %0, ptr %2, align 8, !tbaa !26
  %3 = load ptr, ptr %2, align 8, !tbaa !26
  %4 = getelementptr inbounds nuw %struct.Dec_Graph_t_, ptr %3, i32 0, i32 5
  %5 = load i32, ptr %4, align 8
  %6 = and i32 %5, 1
  ret i32 %6
}

; Function Attrs: inlinehint nounwind uwtable
define internal ptr @Ivy_ManConst1(ptr noundef %0) #2 {
  %2 = alloca ptr, align 8
  store ptr %0, ptr %2, align 8, !tbaa !3
  %3 = load ptr, ptr %2, align 8, !tbaa !3
  %4 = getelementptr inbounds nuw %struct.Ivy_Man_t_, ptr %3, i32 0, i32 4
  %5 = load ptr, ptr %4, align 8, !tbaa !138
  ret ptr %5
}

; Function Attrs: inlinehint nounwind uwtable
define internal i32 @Dec_GraphIsConst(ptr noundef %0) #2 {
  %2 = alloca ptr, align 8
  store ptr %0, ptr %2, align 8, !tbaa !26
  %3 = load ptr, ptr %2, align 8, !tbaa !26
  %4 = getelementptr inbounds nuw %struct.Dec_Graph_t_, ptr %3, i32 0, i32 0
  %5 = load i32, ptr %4, align 8, !tbaa !129
  ret i32 %5
}

; Function Attrs: nounwind uwtable
define internal ptr @Ivy_GraphToNetworkSeq(ptr noundef %0, ptr noundef %1) #0 {
  %3 = alloca ptr, align 8
  %4 = alloca ptr, align 8
  %5 = alloca ptr, align 8
  %6 = alloca ptr, align 8
  %7 = alloca ptr, align 8
  %8 = alloca ptr, align 8
  %9 = alloca i32, align 4
  %10 = alloca i32, align 4
  %11 = alloca i32, align 4
  store ptr %0, ptr %4, align 8, !tbaa !3
  store ptr %1, ptr %5, align 8, !tbaa !26
  call void @llvm.lifetime.start.p0(i64 8, ptr %6) #10
  call void @llvm.lifetime.start.p0(i64 8, ptr %7) #10
  call void @llvm.lifetime.start.p0(i64 8, ptr %8) #10
  store ptr null, ptr %8, align 8, !tbaa !119
  call void @llvm.lifetime.start.p0(i64 4, ptr %9) #10
  call void @llvm.lifetime.start.p0(i64 4, ptr %10) #10
  %12 = load ptr, ptr %5, align 8, !tbaa !26
  %13 = call i32 @Dec_GraphIsConst(ptr noundef %12)
  %14 = icmp ne i32 %13, 0
  br i1 %14, label %15, label %21

15:                                               ; preds = %2
  %16 = load ptr, ptr %4, align 8, !tbaa !3
  %17 = call ptr @Ivy_ManConst1(ptr noundef %16)
  %18 = load ptr, ptr %5, align 8, !tbaa !26
  %19 = call i32 @Dec_GraphIsComplement(ptr noundef %18)
  %20 = call ptr @Ivy_NotCond(ptr noundef %17, i32 noundef %19)
  store ptr %20, ptr %3, align 8
  store i32 1, ptr %11, align 4
  br label %165

21:                                               ; preds = %2
  %22 = load ptr, ptr %5, align 8, !tbaa !26
  %23 = call i32 @Dec_GraphIsVar(ptr noundef %22)
  %24 = icmp ne i32 %23, 0
  br i1 %24, label %25, label %53

25:                                               ; preds = %21
  %26 = load ptr, ptr %5, align 8, !tbaa !26
  %27 = call ptr @Dec_GraphVar(ptr noundef %26)
  store ptr %27, ptr %8, align 8, !tbaa !119
  store i32 0, ptr %10, align 4, !tbaa !8
  br label %28

28:                                               ; preds = %43, %25
  %29 = load i32, ptr %10, align 4, !tbaa !8
  %30 = load ptr, ptr %8, align 8, !tbaa !119
  %31 = getelementptr inbounds nuw %struct.Dec_Node_t_, ptr %30, i32 0, i32 3
  %32 = load i32, ptr %31, align 8
  %33 = lshr i32 %32, 27
  %34 = icmp slt i32 %29, %33
  br i1 %34, label %35, label %46

35:                                               ; preds = %28
  %36 = load ptr, ptr %4, align 8, !tbaa !3
  %37 = load ptr, ptr %8, align 8, !tbaa !119
  %38 = getelementptr inbounds nuw %struct.Dec_Node_t_, ptr %37, i32 0, i32 2
  %39 = load ptr, ptr %38, align 8, !tbaa !58
  %40 = call ptr @Ivy_Latch(ptr noundef %36, ptr noundef %39, i32 noundef 3)
  %41 = load ptr, ptr %8, align 8, !tbaa !119
  %42 = getelementptr inbounds nuw %struct.Dec_Node_t_, ptr %41, i32 0, i32 2
  store ptr %40, ptr %42, align 8, !tbaa !58
  br label %43

43:                                               ; preds = %35
  %44 = load i32, ptr %10, align 4, !tbaa !8
  %45 = add nsw i32 %44, 1
  store i32 %45, ptr %10, align 4, !tbaa !8
  br label %28, !llvm.loop !133

46:                                               ; preds = %28
  %47 = load ptr, ptr %8, align 8, !tbaa !119
  %48 = getelementptr inbounds nuw %struct.Dec_Node_t_, ptr %47, i32 0, i32 2
  %49 = load ptr, ptr %48, align 8, !tbaa !58
  %50 = load ptr, ptr %5, align 8, !tbaa !26
  %51 = call i32 @Dec_GraphIsComplement(ptr noundef %50)
  %52 = call ptr @Ivy_NotCond(ptr noundef %49, i32 noundef %51)
  store ptr %52, ptr %3, align 8
  store i32 1, ptr %11, align 4
  br label %165

53:                                               ; preds = %21
  %54 = load ptr, ptr %5, align 8, !tbaa !26
  %55 = getelementptr inbounds nuw %struct.Dec_Graph_t_, ptr %54, i32 0, i32 1
  %56 = load i32, ptr %55, align 4, !tbaa !115
  store i32 %56, ptr %9, align 4, !tbaa !8
  br label %57

57:                                               ; preds = %136, %53
  %58 = load i32, ptr %9, align 4, !tbaa !8
  %59 = load ptr, ptr %5, align 8, !tbaa !26
  %60 = getelementptr inbounds nuw %struct.Dec_Graph_t_, ptr %59, i32 0, i32 2
  %61 = load i32, ptr %60, align 8, !tbaa !121
  %62 = icmp slt i32 %58, %61
  br i1 %62, label %63, label %67

63:                                               ; preds = %57
  %64 = load ptr, ptr %5, align 8, !tbaa !26
  %65 = load i32, ptr %9, align 4, !tbaa !8
  %66 = call ptr @Dec_GraphNode(ptr noundef %64, i32 noundef %65)
  store ptr %66, ptr %8, align 8, !tbaa !119
  br label %67

67:                                               ; preds = %63, %57
  %68 = phi i1 [ false, %57 ], [ true, %63 ]
  br i1 %68, label %69, label %139

69:                                               ; preds = %67
  %70 = load ptr, ptr %5, align 8, !tbaa !26
  %71 = load ptr, ptr %8, align 8, !tbaa !119
  %72 = getelementptr inbounds nuw %struct.Dec_Node_t_, ptr %71, i32 0, i32 0
  %73 = load i32, ptr %72, align 8
  %74 = lshr i32 %73, 1
  %75 = and i32 %74, 1073741823
  %76 = call ptr @Dec_GraphNode(ptr noundef %70, i32 noundef %75)
  %77 = getelementptr inbounds nuw %struct.Dec_Node_t_, ptr %76, i32 0, i32 2
  %78 = load ptr, ptr %77, align 8, !tbaa !58
  %79 = load ptr, ptr %8, align 8, !tbaa !119
  %80 = getelementptr inbounds nuw %struct.Dec_Node_t_, ptr %79, i32 0, i32 0
  %81 = load i32, ptr %80, align 8
  %82 = and i32 %81, 1
  %83 = call ptr @Ivy_NotCond(ptr noundef %78, i32 noundef %82)
  store ptr %83, ptr %6, align 8, !tbaa !19
  %84 = load ptr, ptr %5, align 8, !tbaa !26
  %85 = load ptr, ptr %8, align 8, !tbaa !119
  %86 = getelementptr inbounds nuw %struct.Dec_Node_t_, ptr %85, i32 0, i32 1
  %87 = load i32, ptr %86, align 4
  %88 = lshr i32 %87, 1
  %89 = and i32 %88, 1073741823
  %90 = call ptr @Dec_GraphNode(ptr noundef %84, i32 noundef %89)
  %91 = getelementptr inbounds nuw %struct.Dec_Node_t_, ptr %90, i32 0, i32 2
  %92 = load ptr, ptr %91, align 8, !tbaa !58
  %93 = load ptr, ptr %8, align 8, !tbaa !119
  %94 = getelementptr inbounds nuw %struct.Dec_Node_t_, ptr %93, i32 0, i32 1
  %95 = load i32, ptr %94, align 4
  %96 = and i32 %95, 1
  %97 = call ptr @Ivy_NotCond(ptr noundef %92, i32 noundef %96)
  store ptr %97, ptr %7, align 8, !tbaa !19
  store i32 0, ptr %10, align 4, !tbaa !8
  br label %98

98:                                               ; preds = %110, %69
  %99 = load i32, ptr %10, align 4, !tbaa !8
  %100 = load ptr, ptr %8, align 8, !tbaa !119
  %101 = getelementptr inbounds nuw %struct.Dec_Node_t_, ptr %100, i32 0, i32 3
  %102 = load i32, ptr %101, align 8
  %103 = lshr i32 %102, 17
  %104 = and i32 %103, 31
  %105 = icmp slt i32 %99, %104
  br i1 %105, label %106, label %113

106:                                              ; preds = %98
  %107 = load ptr, ptr %4, align 8, !tbaa !3
  %108 = load ptr, ptr %6, align 8, !tbaa !19
  %109 = call ptr @Ivy_Latch(ptr noundef %107, ptr noundef %108, i32 noundef 3)
  store ptr %109, ptr %6, align 8, !tbaa !19
  br label %110

110:                                              ; preds = %106
  %111 = load i32, ptr %10, align 4, !tbaa !8
  %112 = add nsw i32 %111, 1
  store i32 %112, ptr %10, align 4, !tbaa !8
  br label %98, !llvm.loop !134

113:                                              ; preds = %98
  store i32 0, ptr %10, align 4, !tbaa !8
  br label %114

114:                                              ; preds = %126, %113
  %115 = load i32, ptr %10, align 4, !tbaa !8
  %116 = load ptr, ptr %8, align 8, !tbaa !119
  %117 = getelementptr inbounds nuw %struct.Dec_Node_t_, ptr %116, i32 0, i32 3
  %118 = load i32, ptr %117, align 8
  %119 = lshr i32 %118, 22
  %120 = and i32 %119, 31
  %121 = icmp slt i32 %115, %120
  br i1 %121, label %122, label %129

122:                                              ; preds = %114
  %123 = load ptr, ptr %4, align 8, !tbaa !3
  %124 = load ptr, ptr %7, align 8, !tbaa !19
  %125 = call ptr @Ivy_Latch(ptr noundef %123, ptr noundef %124, i32 noundef 3)
  store ptr %125, ptr %7, align 8, !tbaa !19
  br label %126

126:                                              ; preds = %122
  %127 = load i32, ptr %10, align 4, !tbaa !8
  %128 = add nsw i32 %127, 1
  store i32 %128, ptr %10, align 4, !tbaa !8
  br label %114, !llvm.loop !135

129:                                              ; preds = %114
  %130 = load ptr, ptr %4, align 8, !tbaa !3
  %131 = load ptr, ptr %6, align 8, !tbaa !19
  %132 = load ptr, ptr %7, align 8, !tbaa !19
  %133 = call ptr @Ivy_And(ptr noundef %130, ptr noundef %131, ptr noundef %132)
  %134 = load ptr, ptr %8, align 8, !tbaa !119
  %135 = getelementptr inbounds nuw %struct.Dec_Node_t_, ptr %134, i32 0, i32 2
  store ptr %133, ptr %135, align 8, !tbaa !58
  br label %136

136:                                              ; preds = %129
  %137 = load i32, ptr %9, align 4, !tbaa !8
  %138 = add nsw i32 %137, 1
  store i32 %138, ptr %9, align 4, !tbaa !8
  br label %57, !llvm.loop !136

139:                                              ; preds = %67
  store i32 0, ptr %10, align 4, !tbaa !8
  br label %140

140:                                              ; preds = %155, %139
  %141 = load i32, ptr %10, align 4, !tbaa !8
  %142 = load ptr, ptr %8, align 8, !tbaa !119
  %143 = getelementptr inbounds nuw %struct.Dec_Node_t_, ptr %142, i32 0, i32 3
  %144 = load i32, ptr %143, align 8
  %145 = lshr i32 %144, 27
  %146 = icmp slt i32 %141, %145
  br i1 %146, label %147, label %158

147:                                              ; preds = %140
  %148 = load ptr, ptr %4, align 8, !tbaa !3
  %149 = load ptr, ptr %8, align 8, !tbaa !119
  %150 = getelementptr inbounds nuw %struct.Dec_Node_t_, ptr %149, i32 0, i32 2
  %151 = load ptr, ptr %150, align 8, !tbaa !58
  %152 = call ptr @Ivy_Latch(ptr noundef %148, ptr noundef %151, i32 noundef 3)
  %153 = load ptr, ptr %8, align 8, !tbaa !119
  %154 = getelementptr inbounds nuw %struct.Dec_Node_t_, ptr %153, i32 0, i32 2
  store ptr %152, ptr %154, align 8, !tbaa !58
  br label %155

155:                                              ; preds = %147
  %156 = load i32, ptr %10, align 4, !tbaa !8
  %157 = add nsw i32 %156, 1
  store i32 %157, ptr %10, align 4, !tbaa !8
  br label %140, !llvm.loop !137

158:                                              ; preds = %140
  %159 = load ptr, ptr %8, align 8, !tbaa !119
  %160 = getelementptr inbounds nuw %struct.Dec_Node_t_, ptr %159, i32 0, i32 2
  %161 = load ptr, ptr %160, align 8, !tbaa !58
  %162 = load ptr, ptr %5, align 8, !tbaa !26
  %163 = call i32 @Dec_GraphIsComplement(ptr noundef %162)
  %164 = call ptr @Ivy_NotCond(ptr noundef %161, i32 noundef %163)
  store ptr %164, ptr %3, align 8
  store i32 1, ptr %11, align 4
  br label %165

165:                                              ; preds = %158, %46, %15
  call void @llvm.lifetime.end.p0(i64 4, ptr %10) #10
  call void @llvm.lifetime.end.p0(i64 4, ptr %9) #10
  call void @llvm.lifetime.end.p0(i64 8, ptr %8) #10
  call void @llvm.lifetime.end.p0(i64 8, ptr %7) #10
  call void @llvm.lifetime.end.p0(i64 8, ptr %6) #10
  %166 = load ptr, ptr %3, align 8
  ret ptr %166
}

; Function Attrs: inlinehint nounwind uwtable
define internal i32 @Ivy_ManNodeNum(ptr noundef %0) #2 {
  %2 = alloca ptr, align 8
  store ptr %0, ptr %2, align 8, !tbaa !3
  %3 = load ptr, ptr %2, align 8, !tbaa !3
  %4 = getelementptr inbounds nuw %struct.Ivy_Man_t_, ptr %3, i32 0, i32 6
  %5 = getelementptr inbounds [8 x i32], ptr %4, i64 0, i64 5
  %6 = load i32, ptr %5, align 4, !tbaa !8
  %7 = load ptr, ptr %2, align 8, !tbaa !3
  %8 = getelementptr inbounds nuw %struct.Ivy_Man_t_, ptr %7, i32 0, i32 6
  %9 = getelementptr inbounds [8 x i32], ptr %8, i64 0, i64 6
  %10 = load i32, ptr %9, align 8, !tbaa !8
  %11 = add nsw i32 %6, %10
  ret i32 %11
}

; Function Attrs: nounwind uwtable
define internal void @Ivy_GraphUpdateNetworkSeq(ptr noundef %0, ptr noundef %1, ptr noundef %2, i32 noundef %3) #0 {
  %5 = alloca ptr, align 8
  %6 = alloca ptr, align 8
  %7 = alloca ptr, align 8
  %8 = alloca i32, align 4
  %9 = alloca ptr, align 8
  %10 = alloca i32, align 4
  %11 = alloca i32, align 4
  store ptr %0, ptr %5, align 8, !tbaa !3
  store ptr %1, ptr %6, align 8, !tbaa !19
  store ptr %2, ptr %7, align 8, !tbaa !26
  store i32 %3, ptr %8, align 4, !tbaa !8
  call void @llvm.lifetime.start.p0(i64 8, ptr %9) #10
  call void @llvm.lifetime.start.p0(i64 4, ptr %10) #10
  call void @llvm.lifetime.start.p0(i64 4, ptr %11) #10
  %12 = load ptr, ptr %5, align 8, !tbaa !3
  %13 = call i32 @Ivy_ManNodeNum(ptr noundef %12)
  store i32 %13, ptr %11, align 4, !tbaa !8
  %14 = load ptr, ptr %5, align 8, !tbaa !3
  %15 = load ptr, ptr %7, align 8, !tbaa !26
  %16 = call ptr @Ivy_GraphToNetworkSeq(ptr noundef %14, ptr noundef %15)
  store ptr %16, ptr %9, align 8, !tbaa !19
  %17 = load ptr, ptr %5, align 8, !tbaa !3
  %18 = load ptr, ptr %6, align 8, !tbaa !19
  %19 = load ptr, ptr %9, align 8, !tbaa !19
  call void @Ivy_ObjReplace(ptr noundef %17, ptr noundef %18, ptr noundef %19, i32 noundef 1, i32 noundef 0, i32 noundef 0)
  %20 = load ptr, ptr %5, align 8, !tbaa !3
  %21 = call i32 @Ivy_ManNodeNum(ptr noundef %20)
  store i32 %21, ptr %10, align 4, !tbaa !8
  %22 = load ptr, ptr %5, align 8, !tbaa !3
  %23 = call i32 @Ivy_ManPropagateBuffers(ptr noundef %22, i32 noundef 0)
  call void @llvm.lifetime.end.p0(i64 4, ptr %11) #10
  call void @llvm.lifetime.end.p0(i64 4, ptr %10) #10
  call void @llvm.lifetime.end.p0(i64 8, ptr %9) #10
  ret void
}