; Function Attrs: nounwind uwtable
define internal fastcc void @Ivy_GraphUpdateNetworkSeq(ptr noundef %0, ptr noundef nonnull %1, ptr noundef readonly captures(none) %2) unnamed_addr #0 {
  %.val55.i = load i32, ptr %2, align 8, !tbaa !76
  %.not.i = icmp eq i32 %.val55.i, 0
  %4 = getelementptr i8, ptr %2, i64 24
  %.val57.i = load i32, ptr %4, align 8
  br i1 %.not.i, label %7, label %5

5:                                                ; preds = %3
  %6 = getelementptr i8, ptr %0, i64 32
  %.val58.i = load ptr, ptr %6, align 8, !tbaa !97
  br label %Ivy_GraphToNetworkSeq.exit

7:                                                ; preds = %3
  %8 = getelementptr i8, ptr %2, i64 4
  %.val56.i = load i32, ptr %8, align 4, !tbaa !68
  %9 = lshr i32 %.val57.i, 1
  %10 = and i32 %9, 1073741823
  %.not64.i = icmp ult i32 %10, %.val56.i
  br i1 %.not64.i, label %16, label %.preheader65.i

.preheader65.i:                                   ; preds = %7
  %11 = getelementptr inbounds nuw i8, ptr %2, i64 8
  %12 = load i32, ptr %11, align 8, !tbaa !72
  %13 = icmp slt i32 %.val56.i, %12
  tail call void @llvm.assume(i1 %13)
  %14 = getelementptr i8, ptr %2, i64 16
  %15 = zext nneg i32 %.val56.i to i64
  br label %30

16:                                               ; preds = %7
  %17 = getelementptr i8, ptr %2, i64 16
  %.val62.i = load ptr, ptr %17, align 8, !tbaa !73
  %18 = zext nneg i32 %10 to i64
  %19 = getelementptr inbounds nuw %struct.Dec_Node_t_, ptr %.val62.i, i64 %18
  %20 = getelementptr inbounds nuw i8, ptr %19, i64 16
  %21 = load i32, ptr %20, align 8
  %.not84.i = icmp ult i32 %21, 134217728
  %.phi.trans.insert.i = getelementptr inbounds nuw i8, ptr %19, i64 8
  %.pre88.i = load ptr, ptr %.phi.trans.insert.i, align 8, !tbaa !50
  br i1 %.not84.i, label %Ivy_GraphToNetworkSeq.exit, label %.lr.ph79.i

.lr.ph79.i:                                       ; preds = %16, %.lr.ph79.i
  %22 = phi ptr [ %23, %.lr.ph79.i ], [ %.pre88.i, %16 ]
  %.077.i = phi i32 [ %24, %.lr.ph79.i ], [ 0, %16 ]
  %23 = tail call ptr @Ivy_Latch(ptr noundef %0, ptr noundef %22, i32 noundef 3) #19
  store ptr %23, ptr %.phi.trans.insert.i, align 8, !tbaa !50
  %24 = add nuw nsw i32 %.077.i, 1
  %25 = load i32, ptr %20, align 8
  %26 = lshr i32 %25, 27
  %27 = icmp samesign ult i32 %24, %26
  br i1 %27, label %.lr.ph79.i, label %._crit_edge80.loopexit.i, !llvm.loop !98

._crit_edge80.loopexit.i:                         ; preds = %.lr.ph79.i
  %.val60.pre.i = load i32, ptr %4, align 8
  br label %Ivy_GraphToNetworkSeq.exit

.critedge.preheader.i:                            ; preds = %._crit_edge.i
  %28 = getelementptr inbounds nuw i8, ptr %31, i64 8
  %29 = load i32, ptr %55, align 8
  %.not83.i = icmp ult i32 %29, 134217728
  br i1 %.not83.i, label %.critedge._crit_edge.i, label %.critedge.i

30:                                               ; preds = %._crit_edge.i, %.preheader65.i
  %indvars.iv.i = phi i64 [ %15, %.preheader65.i ], [ %indvars.iv.next.i, %._crit_edge.i ]
  %.val54.i = load ptr, ptr %14, align 8, !tbaa !73
  %31 = getelementptr inbounds nuw %struct.Dec_Node_t_, ptr %.val54.i, i64 %indvars.iv.i
  %32 = load i32, ptr %31, align 8
  %33 = lshr i32 %32, 1
  %34 = and i32 %33, 1073741823
  %35 = zext nneg i32 %34 to i64
  %36 = getelementptr inbounds nuw %struct.Dec_Node_t_, ptr %.val54.i, i64 %35, i32 2
  %37 = load ptr, ptr %36, align 8, !tbaa !50
  %38 = and i32 %32, 1
  %39 = ptrtoint ptr %37 to i64
  %40 = zext nneg i32 %38 to i64
  %41 = xor i64 %40, %39
  %42 = inttoptr i64 %41 to ptr
  %43 = getelementptr inbounds nuw i8, ptr %31, i64 4
  %44 = load i32, ptr %43, align 4
  %45 = lshr i32 %44, 1
  %46 = and i32 %45, 1073741823
  %47 = zext nneg i32 %46 to i64
  %48 = getelementptr inbounds nuw %struct.Dec_Node_t_, ptr %.val54.i, i64 %47, i32 2
  %49 = load ptr, ptr %48, align 8, !tbaa !50
  %50 = and i32 %44, 1
  %51 = ptrtoint ptr %49 to i64
  %52 = zext nneg i32 %50 to i64
  %53 = xor i64 %52, %51
  %54 = inttoptr i64 %53 to ptr
  %55 = getelementptr inbounds nuw i8, ptr %31, i64 16
  %56 = load i32, ptr %55, align 8
  %57 = and i32 %56, 4063232
  %.not81.i = icmp eq i32 %57, 0
  br i1 %.not81.i, label %.preheader.i, label %.lr.ph.i

.preheader.i:                                     ; preds = %.lr.ph.i, %30
  %58 = phi i32 [ %56, %30 ], [ %62, %.lr.ph.i ]
  %.050.lcssa.i = phi ptr [ %42, %30 ], [ %60, %.lr.ph.i ]
  %59 = and i32 %58, 130023424
  %.not82.i = icmp eq i32 %59, 0
  br i1 %.not82.i, label %._crit_edge.i, label %.lr.ph70.i

.lr.ph.i:                                         ; preds = %30, %.lr.ph.i
  %.167.i = phi i32 [ %61, %.lr.ph.i ], [ 0, %30 ]
  %.05066.i = phi ptr [ %60, %.lr.ph.i ], [ %42, %30 ]
  %60 = tail call ptr @Ivy_Latch(ptr noundef %0, ptr noundef %.05066.i, i32 noundef 3) #19
  %61 = add nuw nsw i32 %.167.i, 1
  %62 = load i32, ptr %55, align 8
  %63 = lshr i32 %62, 17
  %64 = and i32 %63, 31
  %65 = icmp samesign ult i32 %61, %64
  br i1 %65, label %.lr.ph.i, label %.preheader.i, !llvm.loop !99

.lr.ph70.i:                                       ; preds = %.preheader.i, %.lr.ph70.i
  %.269.i = phi i32 [ %67, %.lr.ph70.i ], [ 0, %.preheader.i ]
  %.04968.i = phi ptr [ %66, %.lr.ph70.i ], [ %54, %.preheader.i ]
  %66 = tail call ptr @Ivy_Latch(ptr noundef %0, ptr noundef %.04968.i, i32 noundef 3) #19
  %67 = add nuw nsw i32 %.269.i, 1
  %68 = load i32, ptr %55, align 8
  %69 = lshr i32 %68, 22
  %70 = and i32 %69, 31
  %71 = icmp samesign ult i32 %67, %70
  br i1 %71, label %.lr.ph70.i, label %._crit_edge.i, !llvm.loop !100

._crit_edge.i:                                    ; preds = %.lr.ph70.i, %.preheader.i
  %.049.lcssa.i = phi ptr [ %54, %.preheader.i ], [ %66, %.lr.ph70.i ]
  %72 = tail call ptr @Ivy_And(ptr noundef %0, ptr noundef %.050.lcssa.i, ptr noundef %.049.lcssa.i) #19
  %73 = getelementptr inbounds nuw i8, ptr %31, i64 8
  store ptr %72, ptr %73, align 8, !tbaa !50
  %indvars.iv.next.i = add nuw nsw i64 %indvars.iv.i, 1
  %74 = load i32, ptr %11, align 8, !tbaa !72
  %75 = sext i32 %74 to i64
  %76 = icmp slt i64 %indvars.iv.next.i, %75
  br i1 %76, label %30, label %.critedge.preheader.i, !llvm.loop !101

.critedge.i:                                      ; preds = %.critedge.preheader.i, %.critedge.i
  %77 = phi ptr [ %78, %.critedge.i ], [ %72, %.critedge.preheader.i ]
  %.375.i = phi i32 [ %79, %.critedge.i ], [ 0, %.critedge.preheader.i ]
  %78 = tail call ptr @Ivy_Latch(ptr noundef %0, ptr noundef %77, i32 noundef 3) #19
  store ptr %78, ptr %28, align 8, !tbaa !50
  %79 = add nuw nsw i32 %.375.i, 1
  %80 = load i32, ptr %55, align 8
  %81 = lshr i32 %80, 27
  %82 = icmp samesign ult i32 %79, %81
  br i1 %82, label %.critedge.i, label %.critedge._crit_edge.i, !llvm.loop !102

.critedge._crit_edge.i:                           ; preds = %.critedge.i, %.critedge.preheader.i
  %83 = phi ptr [ %72, %.critedge.preheader.i ], [ %78, %.critedge.i ]
  %.val61.i = load i32, ptr %4, align 8
  br label %Ivy_GraphToNetworkSeq.exit

Ivy_GraphToNetworkSeq.exit:                       ; preds = %5, %16, %._crit_edge80.loopexit.i, %.critedge._crit_edge.i
  %.val61.sink.i = phi i32 [ %.val61.i, %.critedge._crit_edge.i ], [ %.val57.i, %5 ], [ %.val60.pre.i, %._crit_edge80.loopexit.i ], [ %.val57.i, %16 ]
  %.sink.i = phi ptr [ %83, %.critedge._crit_edge.i ], [ %.val58.i, %5 ], [ %23, %._crit_edge80.loopexit.i ], [ %.pre88.i, %16 ]
  %84 = and i32 %.val61.sink.i, 1
  %85 = ptrtoint ptr %.sink.i to i64
  %86 = zext nneg i32 %84 to i64
  %87 = xor i64 %86, %85
  %.051.i = inttoptr i64 %87 to ptr
  tail call void @Ivy_ObjReplace(ptr noundef %0, ptr noundef nonnull %1, ptr noundef %.051.i, i32 noundef 1, i32 noundef 0, i32 noundef 0) #19
  %88 = tail call i32 @Ivy_ManPropagateBuffers(ptr noundef %0, i32 noundef 0) #19
  ret void
}